; Function Attrs: nounwind uwtable
define zeroext range(i8 0, 2) i8 @l_Lean_Grind_CommRing_Poly_divides(ptr noundef %0, ptr noundef %1) local_unnamed_addr #1 {
  %3 = ptrtoint ptr %0 to i64
  %4 = and i64 %3, 1
  %.not.i16 = icmp eq i64 %4, 0
  br i1 %.not.i16, label %8, label %5

5:                                                ; preds = %2
  %6 = lshr i64 %3, 1
  %7 = trunc i64 %6 to i32
  br label %lean_obj_tag.exit

8:                                                ; preds = %2
  %9 = getelementptr i8, ptr %0, i64 4
  %.val.i = load i32, ptr %9, align 4
  %10 = lshr i32 %.val.i, 24
  br label %lean_obj_tag.exit

lean_obj_tag.exit:                                ; preds = %5, %8
  %.0.i = phi i32 [ %7, %5 ], [ %10, %8 ]
  %11 = icmp eq i32 %.0.i, 0
  br i1 %11, label %12, label %29

12:                                               ; preds = %lean_obj_tag.exit
  %13 = ptrtoint ptr %1 to i64
  %14 = and i64 %13, 1
  %.not20 = icmp eq i64 %14, 0
  br i1 %.not20, label %15, label %lean_dec.exit11

15:                                               ; preds = %12
  %16 = load i32, ptr %1, align 4, !tbaa !10
  %17 = icmp sgt i32 %16, 1
  br i1 %17, label %18, label %20, !prof !5

18:                                               ; preds = %15
  %19 = add nsw i32 %16, -1
  store i32 %19, ptr %1, align 4, !tbaa !10
  br label %lean_dec.exit11

20:                                               ; preds = %15
  %.not.i = icmp eq i32 %16, 0
  br i1 %.not.i, label %lean_dec.exit11, label %21

21:                                               ; preds = %20
  tail call void @lean_dec_ref_cold(ptr noundef nonnull %1) #6
  br label %lean_dec.exit11

lean_dec.exit11:                                  ; preds = %21, %20, %18, %12
  br i1 %.not.i16, label %22, label %lean_dec.exit10

22:                                               ; preds = %lean_dec.exit11
  %23 = load i32, ptr %0, align 4, !tbaa !10
  %24 = icmp sgt i32 %23, 1
  br i1 %24, label %25, label %27, !prof !5

25:                                               ; preds = %22
  %26 = add nsw i32 %23, -1
  store i32 %26, ptr %0, align 4, !tbaa !10
  br label %lean_dec.exit10

27:                                               ; preds = %22
  %.not.i12 = icmp eq i32 %23, 0
  br i1 %.not.i12, label %lean_dec.exit10, label %28

28:                                               ; preds = %27
  tail call void @lean_dec_ref_cold(ptr noundef nonnull %0) #6
  br label %lean_dec.exit10

29:                                               ; preds = %lean_obj_tag.exit
  %30 = getelementptr inbounds nuw i8, ptr %0, i64 16
  %31 = load ptr, ptr %30, align 8, !tbaa !6
  %32 = ptrtoint ptr %31 to i64
  %33 = and i64 %32, 1
  %.not = icmp eq i64 %33, 0
  br i1 %.not, label %34, label %lean_inc.exit

34:                                               ; preds = %29
  %.val.i17 = load i32, ptr %31, align 4, !tbaa !10
  %35 = icmp sgt i32 %.val.i17, 0
  br i1 %35, label %36, label %38, !prof !5

36:                                               ; preds = %34
  %37 = add nuw i32 %.val.i17, 1
  store i32 %37, ptr %31, align 4, !tbaa !10
  br label %lean_inc.exit

38:                                               ; preds = %34
  %.not.i18 = icmp eq i32 %.val.i17, 0
  br i1 %.not.i18, label %lean_inc.exit, label %39

39:                                               ; preds = %38
  tail call void @lean_inc_ref_cold(ptr noundef nonnull %31) #6
  br label %lean_inc.exit

lean_inc.exit:                                    ; preds = %39, %38, %36, %29
  br i1 %.not.i16, label %40, label %lean_dec.exit

40:                                               ; preds = %lean_inc.exit
  %41 = load i32, ptr %0, align 4, !tbaa !10
  %42 = icmp sgt i32 %41, 1
  br i1 %42, label %43, label %45, !prof !5

43:                                               ; preds = %40
  %44 = add nsw i32 %41, -1
  store i32 %44, ptr %0, align 4, !tbaa !10
  br label %lean_dec.exit

45:                                               ; preds = %40
  %.not.i14 = icmp eq i32 %41, 0
  br i1 %.not.i14, label %lean_dec.exit, label %46

46:                                               ; preds = %45
  tail call void @lean_dec_ref_cold(ptr noundef nonnull %0) #6
  br label %lean_dec.exit

lean_dec.exit:                                    ; preds = %46, %45, %43, %lean_inc.exit
  %47 = tail call zeroext i8 @l_Lean_Grind_CommRing_Mon_divides(ptr noundef %31, ptr noundef %1)
  br label %lean_dec.exit10

lean_dec.exit10:                                  ; preds = %lean_dec.exit11, %25, %27, %28, %lean_dec.exit
  %.0 = phi i8 [ %47, %lean_dec.exit ], [ 1, %28 ], [ 1, %27 ], [ 1, %25 ], [ 1, %lean_dec.exit11 ]
  ret i8 %.0
}